(dp0
S'date'
p1
(lp2
S'2007-05-17'
p3
aS'2010-03-22'
p4
aS'2012-02-14'
p5
aS'2012-03-02'
p6
aS'2012-05-15'
p7
aS'2013-04-19'
p8
aS'2014-01-02'
p9
aS'2014-01-08'
p10
aS'2014-08-01'
p11
aS'2014-12-12'
p12
asS'stars'
p13
(lp14
I5
aI2
aI4
aI4
aI4
aI1
aI5
aI5
aI1
aI5
as.